target datalayout = "e-m:e-p270:32:32-p271:32:32-p272:64:64-i64:64-i128:128-f80:128-n8:16:32:64-S128"
target triple = "x86_64-pc-linux-gnu"

%struct.ParamListInfoData = type { ptr, ptr, ptr, ptr, ptr, ptr, ptr, i32, [0 x %struct.ParamExternData] }
%struct.ParamExternData = type { i64, i8, i16, i32 }
%struct.StringInfoData = type { ptr, i32, i32, i32 }

@CurrentMemoryContext = external global ptr, align 8
@.str = private unnamed_addr constant [20 x i8] c"BuildParamLogString\00", align 1
@.str.1 = private unnamed_addr constant [9 x i8] c"%s$%d = \00", align 1
@.str.2 = private unnamed_addr constant [3 x i8] c", \00", align 1
@.str.3 = private unnamed_addr constant [1 x i8] zeroinitializer, align 1
@.str.4 = private unnamed_addr constant [5 x i8] c"NULL\00", align 1

; Function Attrs: inlinehint nounwind uwtable
define internal ptr @MemoryContextSwitchTo(ptr noundef %0) #4 {
  %2 = alloca ptr, align 8
  %3 = alloca ptr, align 8
  store ptr %0, ptr %2, align 8
  call void @llvm.lifetime.start.p0(i64 8, ptr %3) #5
  %4 = load ptr, ptr @CurrentMemoryContext, align 8
  store ptr %4, ptr %3, align 8
  %5 = load ptr, ptr %2, align 8
  store ptr %5, ptr @CurrentMemoryContext, align 8
  %6 = load ptr, ptr %3, align 8
  call void @llvm.lifetime.end.p0(i64 8, ptr %3) #5
  ret ptr %6
}

; Function Attrs: nounwind uwtable
define dso_local ptr @BuildParamLogString(ptr noundef %0, ptr noundef %1, i32 noundef %2) #0 {
  %4 = alloca ptr, align 8
  %5 = alloca ptr, align 8
  %6 = alloca ptr, align 8
  %7 = alloca i32, align 4
  %8 = alloca ptr, align 8
  %9 = alloca ptr, align 8
  %10 = alloca %struct.StringInfoData, align 8
  %11 = alloca i32, align 4
  %12 = alloca i32, align 4
  %13 = alloca i32, align 4
  %14 = alloca ptr, align 8
  %15 = alloca i32, align 4
  %16 = alloca i8, align 1
  %17 = alloca ptr, align 8
  store ptr %0, ptr %5, align 8
  store ptr %1, ptr %6, align 8
  store i32 %2, ptr %7, align 4
  call void @llvm.lifetime.start.p0(i64 8, ptr %8) #5
  call void @llvm.lifetime.start.p0(i64 8, ptr %9) #5
  call void @llvm.lifetime.start.p0(i64 24, ptr %10) #5
  %18 = load ptr, ptr %5, align 8
  %19 = getelementptr inbounds nuw %struct.ParamListInfoData, ptr %18, i32 0, i32 0
  %20 = load ptr, ptr %19, align 8
  %21 = icmp ne ptr %20, null
  br i1 %21, label %24, label %22

22:                                               ; preds = %3
  %23 = call zeroext i1 @IsAbortedTransactionBlockState()
  br i1 %23, label %24, label %25

24:                                               ; preds = %22, %3
  store ptr null, ptr %4, align 8
  store i32 1, ptr %11, align 4
  br label %100

25:                                               ; preds = %22
  call void @initStringInfo(ptr noundef %10)
  br label %26

26:                                               ; preds = %25
  br label %27

27:                                               ; preds = %26
  br label %28

28:                                               ; preds = %27
  store i32 1, ptr %12, align 4
  %29 = load ptr, ptr @CurrentMemoryContext, align 8
  %30 = call ptr @AllocSetContextCreateInternal(ptr noundef %29, ptr noundef @.str, i64 noundef 0, i64 noundef 8192, i64 noundef 8388608)
  store ptr %30, ptr %8, align 8
  %31 = load ptr, ptr %8, align 8
  %32 = call ptr @MemoryContextSwitchTo(ptr noundef %31)
  store ptr %32, ptr %9, align 8
  call void @llvm.lifetime.start.p0(i64 4, ptr %13) #5
  store i32 0, ptr %13, align 4
  br label %33

33:                                               ; preds = %91, %28
  %34 = load i32, ptr %13, align 4
  %35 = load ptr, ptr %5, align 8
  %36 = getelementptr inbounds nuw %struct.ParamListInfoData, ptr %35, i32 0, i32 7
  %37 = load i32, ptr %36, align 8
  %38 = icmp slt i32 %34, %37
  br i1 %38, label %40, label %39

39:                                               ; preds = %33
  store i32 4, ptr %11, align 4
  call void @llvm.lifetime.end.p0(i64 4, ptr %13) #5
  br label %94

40:                                               ; preds = %33
  call void @llvm.lifetime.start.p0(i64 8, ptr %14) #5
  %41 = load ptr, ptr %5, align 8
  %42 = getelementptr inbounds nuw %struct.ParamListInfoData, ptr %41, i32 0, i32 8
  %43 = load i32, ptr %13, align 4
  %44 = sext i32 %43 to i64
  %45 = getelementptr inbounds [0 x %struct.ParamExternData], ptr %42, i64 0, i64 %44
  store ptr %45, ptr %14, align 8
  %46 = load i32, ptr %13, align 4
  %47 = icmp sgt i32 %46, 0
  %48 = select i1 %47, ptr @.str.2, ptr @.str.3
  %49 = load i32, ptr %13, align 4
  %50 = add i32 %49, 1
  call void (ptr, ptr, ...) @appendStringInfo(ptr noundef %10, ptr noundef @.str.1, ptr noundef %48, i32 noundef %50)
  %51 = load ptr, ptr %14, align 8
  %52 = getelementptr inbounds nuw %struct.ParamExternData, ptr %51, i32 0, i32 1
  %53 = load i8, ptr %52, align 8, !range !4, !noundef !5
  %54 = trunc i8 %53 to i1
  br i1 %54, label %60, label %55

55:                                               ; preds = %40
  %56 = load ptr, ptr %14, align 8
  %57 = getelementptr inbounds nuw %struct.ParamExternData, ptr %56, i32 0, i32 3
  %58 = load i32, ptr %57, align 4
  %59 = icmp ne i32 %58, 0
  br i1 %59, label %61, label %60

60:                                               ; preds = %55, %40
  call void @appendStringInfoString(ptr noundef %10, ptr noundef @.str.4)
  br label %90

61:                                               ; preds = %55
  %62 = load ptr, ptr %6, align 8
  %63 = icmp ne ptr %62, null
  br i1 %63, label %64, label %78

64:                                               ; preds = %61
  %65 = load ptr, ptr %6, align 8
  %66 = load i32, ptr %13, align 4
  %67 = sext i32 %66 to i64
  %68 = getelementptr inbounds ptr, ptr %65, i64 %67
  %69 = load ptr, ptr %68, align 8
  %70 = icmp ne ptr %69, null
  br i1 %70, label %71, label %78

71:                                               ; preds = %64
  %72 = load ptr, ptr %6, align 8
  %73 = load i32, ptr %13, align 4
  %74 = sext i32 %73 to i64
  %75 = getelementptr inbounds ptr, ptr %72, i64 %74
  %76 = load ptr, ptr %75, align 8
  %77 = load i32, ptr %7, align 4
  call void @appendStringInfoStringQuoted(ptr noundef %10, ptr noundef %76, i32 noundef %77)
  br label %89

78:                                               ; preds = %64, %61
  call void @llvm.lifetime.start.p0(i64 4, ptr %15) #5
  call void @llvm.lifetime.start.p0(i64 1, ptr %16) #5
  call void @llvm.lifetime.start.p0(i64 8, ptr %17) #5
  %79 = load ptr, ptr %14, align 8
  %80 = getelementptr inbounds nuw %struct.ParamExternData, ptr %79, i32 0, i32 3
  %81 = load i32, ptr %80, align 4
  call void @getTypeOutputInfo(i32 noundef %81, ptr noundef %15, ptr noundef %16)
  %82 = load i32, ptr %15, align 4
  %83 = load ptr, ptr %14, align 8
  %84 = getelementptr inbounds nuw %struct.ParamExternData, ptr %83, i32 0, i32 0
  %85 = load i64, ptr %84, align 8
  %86 = call ptr @OidOutputFunctionCall(i32 noundef %82, i64 noundef %85)
  store ptr %86, ptr %17, align 8
  %87 = load ptr, ptr %17, align 8
  %88 = load i32, ptr %7, align 4
  call void @appendStringInfoStringQuoted(ptr noundef %10, ptr noundef %87, i32 noundef %88)
  call void @llvm.lifetime.end.p0(i64 8, ptr %17) #5
  call void @llvm.lifetime.end.p0(i64 1, ptr %16) #5
  call void @llvm.lifetime.end.p0(i64 4, ptr %15) #5
  br label %89

89:                                               ; preds = %78, %71
  br label %90

90:                                               ; preds = %89, %60
  call void @llvm.lifetime.end.p0(i64 8, ptr %14) #5
  br label %91

91:                                               ; preds = %90
  %92 = load i32, ptr %13, align 4
  %93 = add i32 %92, 1
  store i32 %93, ptr %13, align 4
  br label %33, !llvm.loop !11

94:                                               ; preds = %39
  %95 = load ptr, ptr %9, align 8
  %96 = call ptr @MemoryContextSwitchTo(ptr noundef %95)
  %97 = load ptr, ptr %8, align 8
  call void @MemoryContextDelete(ptr noundef %97)
  %98 = getelementptr inbounds nuw %struct.StringInfoData, ptr %10, i32 0, i32 0
  %99 = load ptr, ptr %98, align 8
  store ptr %99, ptr %4, align 8
  store i32 1, ptr %11, align 4
  br label %100

100:                                              ; preds = %94, %24
  call void @llvm.lifetime.end.p0(i64 24, ptr %10) #5
  call void @llvm.lifetime.end.p0(i64 8, ptr %9) #5
  call void @llvm.lifetime.end.p0(i64 8, ptr %8) #5
  %101 = load ptr, ptr %4, align 8
  ret ptr %101
}