; Function Attrs: nounwind uwtable
define dso_local ptr @BuildParamLogString(ptr noundef readonly captures(none) %0, ptr noundef readonly captures(address_is_null) %1, i32 noundef %2) local_unnamed_addr #0 {
  %4 = alloca %struct.StringInfoData, align 8
  %5 = alloca i32, align 4
  %6 = alloca i8, align 1
  call void @llvm.lifetime.start.p0(i64 24, ptr nonnull %4) #7
  %7 = load ptr, ptr %0, align 8
  %.not = icmp eq ptr %7, null
  br i1 %.not, label %8, label %59

8:                                                ; preds = %3
  %9 = tail call zeroext i1 @IsAbortedTransactionBlockState() #7
  br i1 %9, label %59, label %10

10:                                               ; preds = %8
  call void @initStringInfo(ptr noundef nonnull %4) #7
  %11 = load ptr, ptr @CurrentMemoryContext, align 8
  %12 = call ptr @AllocSetContextCreateInternal(ptr noundef %11, ptr noundef nonnull @.str, i64 noundef 0, i64 noundef 8192, i64 noundef 8388608) #7
  %13 = load ptr, ptr @CurrentMemoryContext, align 8
  store ptr %12, ptr @CurrentMemoryContext, align 8
  %14 = getelementptr inbounds nuw i8, ptr %0, i64 56
  %15 = load i32, ptr %14, align 8
  %16 = icmp sgt i32 %15, 0
  br i1 %16, label %.lr.ph, label %._crit_edge

.lr.ph:                                           ; preds = %10
  %17 = getelementptr inbounds nuw i8, ptr %0, i64 64
  %.not27 = icmp eq ptr %1, null
  br i1 %.not27, label %.lr.ph.split.us, label %.lr.ph.split

.lr.ph.split.us:                                  ; preds = %.lr.ph, %32
  %indvars.iv33 = phi i64 [ %indvars.iv.next34, %32 ], [ 0, %.lr.ph ]
  %18 = getelementptr inbounds nuw [0 x %struct.ParamExternData], ptr %17, i64 0, i64 %indvars.iv33
  %.not29.us = icmp eq i64 %indvars.iv33, 0
  %19 = select i1 %.not29.us, ptr @.str.3, ptr @.str.2
  %indvars.iv.next34 = add nuw nsw i64 %indvars.iv33, 1
  %20 = trunc nuw nsw i64 %indvars.iv.next34 to i32
  call void (ptr, ptr, ...) @appendStringInfo(ptr noundef nonnull %4, ptr noundef nonnull @.str.1, ptr noundef nonnull %19, i32 noundef %20) #7
  %21 = getelementptr inbounds nuw i8, ptr %18, i64 8
  %22 = load i8, ptr %21, align 8, !range !4, !noundef !5
  %23 = trunc nuw i8 %22 to i1
  br i1 %23, label %31, label %24

24:                                               ; preds = %.lr.ph.split.us
  %25 = getelementptr inbounds nuw i8, ptr %18, i64 12
  %26 = load i32, ptr %25, align 4
  %.not26.us = icmp eq i32 %26, 0
  br i1 %.not26.us, label %31, label %27

27:                                               ; preds = %24
  call void @llvm.lifetime.start.p0(i64 4, ptr nonnull %5) #7
  call void @llvm.lifetime.start.p0(i64 1, ptr nonnull %6) #7
  call void @getTypeOutputInfo(i32 noundef %26, ptr noundef nonnull %5, ptr noundef nonnull %6) #7
  %28 = load i32, ptr %5, align 4
  %29 = load i64, ptr %18, align 8
  %30 = call ptr @OidOutputFunctionCall(i32 noundef %28, i64 noundef %29) #7
  call void @appendStringInfoStringQuoted(ptr noundef nonnull %4, ptr noundef %30, i32 noundef %2) #7
  call void @llvm.lifetime.end.p0(i64 1, ptr nonnull %6) #7
  call void @llvm.lifetime.end.p0(i64 4, ptr nonnull %5) #7
  br label %32

31:                                               ; preds = %24, %.lr.ph.split.us
  call void @appendStringInfoString(ptr noundef nonnull %4, ptr noundef nonnull @.str.4) #7
  br label %32

32:                                               ; preds = %31, %27
  %33 = load i32, ptr %14, align 8
  %34 = sext i32 %33 to i64
  %35 = icmp slt i64 %indvars.iv.next34, %34
  br i1 %35, label %.lr.ph.split.us, label %._crit_edge, !llvm.loop !11

._crit_edge:                                      ; preds = %55, %32, %10
  store ptr %13, ptr @CurrentMemoryContext, align 8
  call void @MemoryContextDelete(ptr noundef %12) #7
  %36 = load ptr, ptr %4, align 8
  br label %59

.lr.ph.split:                                     ; preds = %.lr.ph, %55
  %indvars.iv = phi i64 [ %indvars.iv.next, %55 ], [ 0, %.lr.ph ]
  %37 = getelementptr inbounds nuw [0 x %struct.ParamExternData], ptr %17, i64 0, i64 %indvars.iv
  %.not29 = icmp eq i64 %indvars.iv, 0
  %38 = select i1 %.not29, ptr @.str.3, ptr @.str.2
  %indvars.iv.next = add nuw nsw i64 %indvars.iv, 1
  %39 = trunc nuw nsw i64 %indvars.iv.next to i32
  call void (ptr, ptr, ...) @appendStringInfo(ptr noundef nonnull %4, ptr noundef nonnull @.str.1, ptr noundef nonnull %38, i32 noundef %39) #7
  %40 = getelementptr inbounds nuw i8, ptr %37, i64 8
  %41 = load i8, ptr %40, align 8, !range !4, !noundef !5
  %42 = trunc nuw i8 %41 to i1
  br i1 %42, label %46, label %43

43:                                               ; preds = %.lr.ph.split
  %44 = getelementptr inbounds nuw i8, ptr %37, i64 12
  %45 = load i32, ptr %44, align 4
  %.not26 = icmp eq i32 %45, 0
  br i1 %.not26, label %46, label %47

46:                                               ; preds = %43, %.lr.ph.split
  call void @appendStringInfoString(ptr noundef nonnull %4, ptr noundef nonnull @.str.4) #7
  br label %55

47:                                               ; preds = %43
  %48 = getelementptr inbounds nuw ptr, ptr %1, i64 %indvars.iv
  %49 = load ptr, ptr %48, align 8
  %.not28 = icmp eq ptr %49, null
  br i1 %.not28, label %51, label %50

50:                                               ; preds = %47
  call void @appendStringInfoStringQuoted(ptr noundef nonnull %4, ptr noundef nonnull %49, i32 noundef %2) #7
  br label %55

51:                                               ; preds = %47
  call void @llvm.lifetime.start.p0(i64 4, ptr nonnull %5) #7
  call void @llvm.lifetime.start.p0(i64 1, ptr nonnull %6) #7
  call void @getTypeOutputInfo(i32 noundef %45, ptr noundef nonnull %5, ptr noundef nonnull %6) #7
  %52 = load i32, ptr %5, align 4
  %53 = load i64, ptr %37, align 8
  %54 = call ptr @OidOutputFunctionCall(i32 noundef %52, i64 noundef %53) #7
  call void @appendStringInfoStringQuoted(ptr noundef nonnull %4, ptr noundef %54, i32 noundef %2) #7
  call void @llvm.lifetime.end.p0(i64 1, ptr nonnull %6) #7
  call void @llvm.lifetime.end.p0(i64 4, ptr nonnull %5) #7
  br label %55

55:                                               ; preds = %50, %51, %46
  %56 = load i32, ptr %14, align 8
  %57 = sext i32 %56 to i64
  %58 = icmp slt i64 %indvars.iv.next, %57
  br i1 %58, label %.lr.ph.split, label %._crit_edge, !llvm.loop !11

59:                                               ; preds = %3, %8, %._crit_edge
  %.0 = phi ptr [ %36, %._crit_edge ], [ null, %8 ], [ null, %3 ]
  call void @llvm.lifetime.end.p0(i64 24, ptr nonnull %4) #7
  ret ptr %.0
}